; ModuleID = '46/2840.c'
source_filename = "46/2840.c"
target datalayout = "e-m:e-p270:32:32-p271:32:32-p272:64:64-i64:64-f80:128-n8:16:32:64-S128"
target triple = "x86_64-pc-linux-gnu"

@.str = private unnamed_addr constant [5 x i8] c"%d%d\00", align 1
@.str.1 = private unnamed_addr constant [3 x i8] c"%d\00", align 1
@.str.2 = private unnamed_addr constant [4 x i8] c"%d\0A\00", align 1

; Function Attrs: noinline nounwind uwtable
define dso_local i32 @main() #0 {
  %1 = alloca i32, align 4
  %2 = alloca i32, align 4
  %3 = alloca i32, align 4
  %4 = alloca i32, align 4
  %5 = alloca i32, align 4
  %6 = alloca i32, align 4
  %7 = alloca i32, align 4
  %8 = alloca [200 x [200 x i32]], align 16
  store i32 0, i32* %1, align 4
  store i32 0, i32* %6, align 4
  store i32 0, i32* %7, align 4
  %9 = call i32 (i8*, ...) @__isoc99_scanf(i8* getelementptr inbounds ([5 x i8], [5 x i8]* @.str, i64 0, i64 0), i32* %4, i32* %5)
  store i32 0, i32* %2, align 4
  br label %10

10:                                               ; preds = %31, %0
  %11 = load i32, i32* %2, align 4
  %12 = load i32, i32* %4, align 4
  %13 = icmp slt i32 %11, %12
  br i1 %13, label %14, label %34

14:                                               ; preds = %10
  store i32 0, i32* %3, align 4
  br label %15

15:                                               ; preds = %27, %14
  %16 = load i32, i32* %3, align 4
  %17 = load i32, i32* %5, align 4
  %18 = icmp slt i32 %16, %17
  br i1 %18, label %19, label %30

19:                                               ; preds = %15
  %20 = load i32, i32* %2, align 4
  %21 = sext i32 %20 to i64
  %22 = getelementptr inbounds [200 x [200 x i32]], [200 x [200 x i32]]* %8, i64 0, i64 %21
  %23 = load i32, i32* %3, align 4
  %24 = sext i32 %23 to i64
  %25 = getelementptr inbounds [200 x i32], [200 x i32]* %22, i64 0, i64 %24
  %26 = call i32 (i8*, ...) @__isoc99_scanf(i8* getelementptr inbounds ([3 x i8], [3 x i8]* @.str.1, i64 0, i64 0), i32* %25)
  br label %27

27:                                               ; preds = %19
  %28 = load i32, i32* %3, align 4
  %29 = add nsw i32 %28, 1
  store i32 %29, i32* %3, align 4
  br label %15

30:                                               ; preds = %15
  br label %31

31:                                               ; preds = %30
  %32 = load i32, i32* %2, align 4
  %33 = add nsw i32 %32, 1
  store i32 %33, i32* %2, align 4
  br label %10

34:                                               ; preds = %10
  br label %35

35:                                               ; preds = %202, %34
  %36 = load i32, i32* %6, align 4
  %37 = icmp sge i32 %36, 0
  br i1 %37, label %38, label %203

38:                                               ; preds = %35
  %39 = load i32, i32* %6, align 4
  %40 = add nsw i32 %39, 1
  %41 = load i32, i32* %4, align 4
  %42 = icmp eq i32 %40, %41
  br i1 %42, label %43, label %62

43:                                               ; preds = %38
  %44 = load i32, i32* %7, align 4
  store i32 %44, i32* %2, align 4
  br label %45

45:                                               ; preds = %58, %43
  %46 = load i32, i32* %2, align 4
  %47 = load i32, i32* %5, align 4
  %48 = icmp slt i32 %46, %47
  br i1 %48, label %49, label %61

49:                                               ; preds = %45
  %50 = load i32, i32* %6, align 4
  %51 = sext i32 %50 to i64
  %52 = getelementptr inbounds [200 x [200 x i32]], [200 x [200 x i32]]* %8, i64 0, i64 %51
  %53 = load i32, i32* %2, align 4
  %54 = sext i32 %53 to i64
  %55 = getelementptr inbounds [200 x i32], [200 x i32]* %52, i64 0, i64 %54
  %56 = load i32, i32* %55, align 4
  %57 = call i32 (i8*, ...) @printf(i8* getelementptr inbounds ([4 x i8], [4 x i8]* @.str.2, i64 0, i64 0), i32 %56)
  br label %58

58:                                               ; preds = %49
  %59 = load i32, i32* %2, align 4
  %60 = add nsw i32 %59, 1
  store i32 %60, i32* %2, align 4
  br label %45

61:                                               ; preds = %45
  br label %203

62:                                               ; preds = %38
  %63 = load i32, i32* %7, align 4
  %64 = add nsw i32 %63, 1
  %65 = load i32, i32* %5, align 4
  %66 = icmp eq i32 %64, %65
  br i1 %66, label %67, label %86

67:                                               ; preds = %62
  %68 = load i32, i32* %6, align 4
  store i32 %68, i32* %2, align 4
  br label %69

69:                                               ; preds = %82, %67
  %70 = load i32, i32* %2, align 4
  %71 = load i32, i32* %4, align 4
  %72 = icmp slt i32 %70, %71
  br i1 %72, label %73, label %85

73:                                               ; preds = %69
  %74 = load i32, i32* %2, align 4
  %75 = sext i32 %74 to i64
  %76 = getelementptr inbounds [200 x [200 x i32]], [200 x [200 x i32]]* %8, i64 0, i64 %75
  %77 = load i32, i32* %7, align 4
  %78 = sext i32 %77 to i64
  %79 = getelementptr inbounds [200 x i32], [200 x i32]* %76, i64 0, i64 %78
  %80 = load i32, i32* %79, align 4
  %81 = call i32 (i8*, ...) @printf(i8* getelementptr inbounds ([4 x i8], [4 x i8]* @.str.2, i64 0, i64 0), i32 %80)
  br label %82

82:                                               ; preds = %73
  %83 = load i32, i32* %2, align 4
  %84 = add nsw i32 %83, 1
  store i32 %84, i32* %2, align 4
  br label %69

85:                                               ; preds = %69
  br label %203

86:                                               ; preds = %62
  %87 = load i32, i32* %6, align 4
  %88 = add nsw i32 %87, 1
  %89 = load i32, i32* %4, align 4
  %90 = icmp eq i32 %88, %89
  br i1 %90, label %91, label %105

91:                                               ; preds = %86
  %92 = load i32, i32* %7, align 4
  %93 = add nsw i32 %92, 1
  %94 = load i32, i32* %5, align 4
  %95 = icmp eq i32 %93, %94
  br i1 %95, label %96, label %105

96:                                               ; preds = %91
  %97 = load i32, i32* %6, align 4
  %98 = sext i32 %97 to i64
  %99 = getelementptr inbounds [200 x [200 x i32]], [200 x [200 x i32]]* %8, i64 0, i64 %98
  %100 = load i32, i32* %7, align 4
  %101 = sext i32 %100 to i64
  %102 = getelementptr inbounds [200 x i32], [200 x i32]* %99, i64 0, i64 %101
  %103 = load i32, i32* %102, align 4
  %104 = call i32 (i8*, ...) @printf(i8* getelementptr inbounds ([4 x i8], [4 x i8]* @.str.2, i64 0, i64 0), i32 %103)
  br label %203

105:                                              ; preds = %91, %86
  %106 = load i32, i32* %7, align 4
  store i32 %106, i32* %2, align 4
  br label %107

107:                                              ; preds = %120, %105
  %108 = load i32, i32* %2, align 4
  %109 = load i32, i32* %5, align 4
  %110 = icmp slt i32 %108, %109
  br i1 %110, label %111, label %123

111:                                              ; preds = %107
  %112 = load i32, i32* %6, align 4
  %113 = sext i32 %112 to i64
  %114 = getelementptr inbounds [200 x [200 x i32]], [200 x [200 x i32]]* %8, i64 0, i64 %113
  %115 = load i32, i32* %2, align 4
  %116 = sext i32 %115 to i64
  %117 = getelementptr inbounds [200 x i32], [200 x i32]* %114, i64 0, i64 %116
  %118 = load i32, i32* %117, align 4
  %119 = call i32 (i8*, ...) @printf(i8* getelementptr inbounds ([4 x i8], [4 x i8]* @.str.2, i64 0, i64 0), i32 %118)
  br label %120

120:                                              ; preds = %111
  %121 = load i32, i32* %2, align 4
  %122 = add nsw i32 %121, 1
  store i32 %122, i32* %2, align 4
  br label %107

123:                                              ; preds = %107
  %124 = load i32, i32* %6, align 4
  %125 = add nsw i32 %124, 1
  store i32 %125, i32* %2, align 4
  br label %126

126:                                              ; preds = %140, %123
  %127 = load i32, i32* %2, align 4
  %128 = load i32, i32* %4, align 4
  %129 = icmp slt i32 %127, %128
  br i1 %129, label %130, label %143

130:                                              ; preds = %126
  %131 = load i32, i32* %2, align 4
  %132 = sext i32 %131 to i64
  %133 = getelementptr inbounds [200 x [200 x i32]], [200 x [200 x i32]]* %8, i64 0, i64 %132
  %134 = load i32, i32* %5, align 4
  %135 = sub nsw i32 %134, 1
  %136 = sext i32 %135 to i64
  %137 = getelementptr inbounds [200 x i32], [200 x i32]* %133, i64 0, i64 %136
  %138 = load i32, i32* %137, align 4
  %139 = call i32 (i8*, ...) @printf(i8* getelementptr inbounds ([4 x i8], [4 x i8]* @.str.2, i64 0, i64 0), i32 %138)
  br label %140

140:                                              ; preds = %130
  %141 = load i32, i32* %2, align 4
  %142 = add nsw i32 %141, 1
  store i32 %142, i32* %2, align 4
  br label %126

143:                                              ; preds = %126
  %144 = load i32, i32* %5, align 4
  %145 = sub nsw i32 %144, 2
  store i32 %145, i32* %2, align 4
  br label %146

146:                                              ; preds = %160, %143
  %147 = load i32, i32* %2, align 4
  %148 = load i32, i32* %7, align 4
  %149 = icmp sge i32 %147, %148
  br i1 %149, label %150, label %163

150:                                              ; preds = %146
  %151 = load i32, i32* %4, align 4
  %152 = sub nsw i32 %151, 1
  %153 = sext i32 %152 to i64
  %154 = getelementptr inbounds [200 x [200 x i32]], [200 x [200 x i32]]* %8, i64 0, i64 %153
  %155 = load i32, i32* %2, align 4
  %156 = sext i32 %155 to i64
  %157 = getelementptr inbounds [200 x i32], [200 x i32]* %154, i64 0, i64 %156
  %158 = load i32, i32* %157, align 4
  %159 = call i32 (i8*, ...) @printf(i8* getelementptr inbounds ([4 x i8], [4 x i8]* @.str.2, i64 0, i64 0), i32 %158)
  br label %160

160:                                              ; preds = %150
  %161 = load i32, i32* %2, align 4
  %162 = add nsw i32 %161, -1
  store i32 %162, i32* %2, align 4
  br label %146

163:                                              ; preds = %146
  %164 = load i32, i32* %4, align 4
  %165 = sub nsw i32 %164, 2
  store i32 %165, i32* %2, align 4
  br label %166

166:                                              ; preds = %180, %163
  %167 = load i32, i32* %2, align 4
  %168 = load i32, i32* %6, align 4
  %169 = add nsw i32 %168, 1
  %170 = icmp sge i32 %167, %169
  br i1 %170, label %171, label %183

171:                                              ; preds = %166
  %172 = load i32, i32* %2, align 4
  %173 = sext i32 %172 to i64
  %174 = getelementptr inbounds [200 x [200 x i32]], [200 x [200 x i32]]* %8, i64 0, i64 %173
  %175 = load i32, i32* %7, align 4
  %176 = sext i32 %175 to i64
  %177 = getelementptr inbounds [200 x i32], [200 x i32]* %174, i64 0, i64 %176
  %178 = load i32, i32* %177, align 4
  %179 = call i32 (i8*, ...) @printf(i8* getelementptr inbounds ([4 x i8], [4 x i8]* @.str.2, i64 0, i64 0), i32 %178)
  br label %180

180:                                              ; preds = %171
  %181 = load i32, i32* %2, align 4
  %182 = add nsw i32 %181, -1
  store i32 %182, i32* %2, align 4
  br label %166

183:                                              ; preds = %166
  %184 = load i32, i32* %6, align 4
  %185 = add nsw i32 %184, 1
  store i32 %185, i32* %6, align 4
  %186 = load i32, i32* %7, align 4
  %187 = add nsw i32 %186, 1
  store i32 %187, i32* %7, align 4
  %188 = load i32, i32* %4, align 4
  %189 = add nsw i32 %188, -1
  store i32 %189, i32* %4, align 4
  %190 = load i32, i32* %5, align 4
  %191 = add nsw i32 %190, -1
  store i32 %191, i32* %5, align 4
  %192 = load i32, i32* %6, align 4
  %193 = load i32, i32* %4, align 4
  %194 = sub nsw i32 %193, 1
  %195 = icmp sgt i32 %192, %194
  br i1 %195, label %201, label %196

196:                                              ; preds = %183
  %197 = load i32, i32* %7, align 4
  %198 = load i32, i32* %5, align 4
  %199 = sub nsw i32 %198, 1
  %200 = icmp sgt i32 %197, %199
  br i1 %200, label %201, label %202

201:                                              ; preds = %196, %183
  br label %203

202:                                              ; preds = %196
  br label %35

203:                                              ; preds = %201, %96, %85, %61, %35
  ret i32 0
}

declare dso_local i32 @__isoc99_scanf(i8*, ...) #1

declare dso_local i32 @printf(i8*, ...) #1


!llvm.module.flags = !{!0}
!llvm.ident = !{!1}

!0 = !{i32 1, !"wchar_size", i32 4}
!1 = !{!"clang version 10.0.0-4ubuntu1 "}
